target datalayout = "e-m:e-p270:32:32-p271:32:32-p272:64:64-i64:64-i128:128-f80:128-n8:16:32:64-S128"
target triple = "x86_64-pc-linux-gnu"

%struct.Test3E = type { [9 x double] }

; Function Attrs: nounwind uwtable
define double @_testfunc_array_in_struct3E(ptr noundef byval(%struct.Test3E) align 8 %0) #0 {
  %2 = alloca double, align 8
  %3 = alloca i32, align 4
  call void @llvm.lifetime.start.p0(i64 8, ptr %2) #12
  store double 0.000000e+00, ptr %2, align 8, !tbaa !9
  call void @llvm.lifetime.start.p0(i64 4, ptr %3) #12
  store i32 0, ptr %3, align 4, !tbaa !3
  br label %4

4:                                                ; preds = %17, %1
  %5 = load i32, ptr %3, align 4, !tbaa !3
  %6 = zext i32 %5 to i64
  %7 = icmp ult i64 %6, 9
  br i1 %7, label %9, label %8

8:                                                ; preds = %4
  call void @llvm.lifetime.end.p0(i64 4, ptr %3) #12
  br label %20

9:                                                ; preds = %4
  %10 = getelementptr inbounds nuw %struct.Test3E, ptr %0, i32 0, i32 0
  %11 = load i32, ptr %3, align 4, !tbaa !3
  %12 = zext i32 %11 to i64
  %13 = getelementptr [9 x double], ptr %10, i64 0, i64 %12
  %14 = load double, ptr %13, align 8, !tbaa !9
  %15 = load double, ptr %2, align 8, !tbaa !9
  %16 = fadd double %15, %14
  store double %16, ptr %2, align 8, !tbaa !9
  br label %17

17:                                               ; preds = %9
  %18 = load i32, ptr %3, align 4, !tbaa !3
  %19 = add i32 %18, 1
  store i32 %19, ptr %3, align 4, !tbaa !3
  br label %4, !llvm.loop !33

20:                                               ; preds = %8
  %21 = getelementptr inbounds nuw %struct.Test3E, ptr %0, i32 0, i32 0
  %22 = getelementptr inbounds [9 x double], ptr %21, i64 0, i64 0
  call void @llvm.memset.p0.i64(ptr align 8 %22, i8 0, i64 72, i1 false)
  %23 = load double, ptr %2, align 8, !tbaa !9
  call void @llvm.lifetime.end.p0(i64 8, ptr %2) #12
  ret double %23
}